target datalayout = "e-m:e-p270:32:32-p271:32:32-p272:64:64-i64:64-i128:128-f80:128-n8:16:32:64-S128"
target triple = "x86_64-pc-linux-gnu"

%struct.Emb_Obj_t_ = type { i32, i32, i32, %union.anon, %union.anon.0, [0 x i32] }
%union.anon = type { i32 }
%union.anon.0 = type { i32 }
%struct.Emb_Man_t_ = type { ptr, ptr, ptr, i32, i32, i32, ptr, i32, i32, ptr, i32, i32, ptr, ptr, ptr, ptr }

; Function Attrs: inlinehint nounwind uwtable
define internal i32 @Emb_ObjSize(ptr noundef %0) #4 {
  %2 = alloca ptr, align 8
  store ptr %0, ptr %2, align 8, !tbaa !3
  %3 = load ptr, ptr %2, align 8, !tbaa !3
  %4 = load i32, ptr %3, align 4
  %5 = lshr i32 %4, 4
  %6 = zext i32 %5 to i64
  %7 = add i64 5, %6
  %8 = load ptr, ptr %2, align 8, !tbaa !3
  %9 = getelementptr inbounds nuw %struct.Emb_Obj_t_, ptr %8, i32 0, i32 1
  %10 = load i32, ptr %9, align 4, !tbaa !31
  %11 = zext i32 %10 to i64
  %12 = add i64 %7, %11
  %13 = trunc i64 %12 to i32
  ret i32 %13
}

; Function Attrs: inlinehint nounwind uwtable
define internal i32 @Abc_MaxInt(i32 noundef %0, i32 noundef %1) #4 {
  %3 = alloca i32, align 4
  %4 = alloca i32, align 4
  store i32 %0, ptr %3, align 4, !tbaa !12
  store i32 %1, ptr %4, align 4, !tbaa !12
  %5 = load i32, ptr %3, align 4, !tbaa !12
  %6 = load i32, ptr %4, align 4, !tbaa !12
  %7 = icmp sgt i32 %5, %6
  br i1 %7, label %8, label %10

8:                                                ; preds = %2
  %9 = load i32, ptr %3, align 4, !tbaa !12
  br label %12

10:                                               ; preds = %2
  %11 = load i32, ptr %4, align 4, !tbaa !12
  br label %12

12:                                               ; preds = %10, %8
  %13 = phi i32 [ %9, %8 ], [ %11, %10 ]
  ret i32 %13
}

; Function Attrs: inlinehint nounwind uwtable
define internal i32 @Abc_MinInt(i32 noundef %0, i32 noundef %1) #4 {
  %3 = alloca i32, align 4
  %4 = alloca i32, align 4
  store i32 %0, ptr %3, align 4, !tbaa !12
  store i32 %1, ptr %4, align 4, !tbaa !12
  %5 = load i32, ptr %3, align 4, !tbaa !12
  %6 = load i32, ptr %4, align 4, !tbaa !12
  %7 = icmp slt i32 %5, %6
  br i1 %7, label %8, label %10

8:                                                ; preds = %2
  %9 = load i32, ptr %3, align 4, !tbaa !12
  br label %12

10:                                               ; preds = %2
  %11 = load i32, ptr %4, align 4, !tbaa !12
  br label %12

12:                                               ; preds = %10, %8
  %13 = phi i32 [ %9, %8 ], [ %11, %10 ]
  ret i32 %13
}

; Function Attrs: inlinehint nounwind uwtable
define internal ptr @Emb_ObjFanout(ptr noundef %0, i32 noundef %1) #4 {
  %3 = alloca ptr, align 8
  %4 = alloca i32, align 4
  store ptr %0, ptr %3, align 8, !tbaa !3
  store i32 %1, ptr %4, align 4, !tbaa !12
  %5 = load ptr, ptr %3, align 8, !tbaa !3
  %6 = load ptr, ptr %3, align 8, !tbaa !3
  %7 = getelementptr inbounds nuw %struct.Emb_Obj_t_, ptr %6, i32 0, i32 5
  %8 = load ptr, ptr %3, align 8, !tbaa !3
  %9 = load i32, ptr %8, align 4
  %10 = lshr i32 %9, 4
  %11 = load i32, ptr %4, align 4, !tbaa !12
  %12 = add nsw i32 %10, %11
  %13 = sext i32 %12 to i64
  %14 = getelementptr inbounds [0 x i32], ptr %7, i64 0, i64 %13
  %15 = load i32, ptr %14, align 4, !tbaa !12
  %16 = sext i32 %15 to i64
  %17 = getelementptr inbounds i32, ptr %5, i64 %16
  ret ptr %17
}

; Function Attrs: inlinehint nounwind uwtable
define internal ptr @Emb_ManObj(ptr noundef %0, i32 noundef %1) #4 {
  %3 = alloca ptr, align 8
  %4 = alloca i32, align 4
  store ptr %0, ptr %3, align 8, !tbaa !15
  store i32 %1, ptr %4, align 4, !tbaa !12
  %5 = load ptr, ptr %3, align 8, !tbaa !15
  %6 = getelementptr inbounds nuw %struct.Emb_Man_t_, ptr %5, i32 0, i32 6
  %7 = load ptr, ptr %6, align 8, !tbaa !28
  %8 = load i32, ptr %4, align 4, !tbaa !12
  %9 = zext i32 %8 to i64
  %10 = getelementptr inbounds nuw i32, ptr %7, i64 %9
  ret ptr %10
}

; Function Attrs: nounwind uwtable
define double @Emb_ManComputeHPWL(ptr noundef %0) #0 {
  %2 = alloca double, align 8
  %3 = alloca ptr, align 8
  %4 = alloca double, align 8
  %5 = alloca ptr, align 8
  %6 = alloca ptr, align 8
  %7 = alloca i32, align 4
  %8 = alloca i32, align 4
  %9 = alloca i32, align 4
  %10 = alloca i32, align 4
  %11 = alloca i32, align 4
  %12 = alloca i32, align 4
  %13 = alloca i32, align 4
  store ptr %0, ptr %3, align 8, !tbaa !15
  call void @llvm.lifetime.start.p0(i64 8, ptr %4) #12
  store double 0.000000e+00, ptr %4, align 8, !tbaa !124
  call void @llvm.lifetime.start.p0(i64 8, ptr %5) #12
  call void @llvm.lifetime.start.p0(i64 8, ptr %6) #12
  call void @llvm.lifetime.start.p0(i64 4, ptr %7) #12
  call void @llvm.lifetime.start.p0(i64 4, ptr %8) #12
  call void @llvm.lifetime.start.p0(i64 4, ptr %9) #12
  call void @llvm.lifetime.start.p0(i64 4, ptr %10) #12
  call void @llvm.lifetime.start.p0(i64 4, ptr %11) #12
  call void @llvm.lifetime.start.p0(i64 4, ptr %12) #12
  %14 = load ptr, ptr %3, align 8, !tbaa !15
  %15 = getelementptr inbounds nuw %struct.Emb_Man_t_, ptr %14, i32 0, i32 15
  %16 = load ptr, ptr %15, align 8, !tbaa !86
  %17 = icmp eq ptr %16, null
  br i1 %17, label %18, label %19

18:                                               ; preds = %1
  store double 0.000000e+00, ptr %2, align 8
  store i32 1, ptr %13, align 4
  br label %149

19:                                               ; preds = %1
  store i32 0, ptr %7, align 4, !tbaa !12
  br label %20

20:                                               ; preds = %142, %19
  %21 = load i32, ptr %7, align 4, !tbaa !12
  %22 = load ptr, ptr %3, align 8, !tbaa !15
  %23 = getelementptr inbounds nuw %struct.Emb_Man_t_, ptr %22, i32 0, i32 7
  %24 = load i32, ptr %23, align 8, !tbaa !27
  %25 = icmp slt i32 %21, %24
  br i1 %25, label %26, label %31

26:                                               ; preds = %20
  %27 = load ptr, ptr %3, align 8, !tbaa !15
  %28 = load i32, ptr %7, align 4, !tbaa !12
  %29 = call ptr @Emb_ManObj(ptr noundef %27, i32 noundef %28)
  store ptr %29, ptr %5, align 8, !tbaa !3
  %30 = icmp ne ptr %29, null
  br label %31

31:                                               ; preds = %26, %20
  %32 = phi i1 [ false, %20 ], [ %30, %26 ]
  br i1 %32, label %33, label %147

33:                                               ; preds = %31
  %34 = load ptr, ptr %3, align 8, !tbaa !15
  %35 = getelementptr inbounds nuw %struct.Emb_Man_t_, ptr %34, i32 0, i32 15
  %36 = load ptr, ptr %35, align 8, !tbaa !86
  %37 = load ptr, ptr %5, align 8, !tbaa !3
  %38 = getelementptr inbounds nuw %struct.Emb_Obj_t_, ptr %37, i32 0, i32 4
  %39 = load i32, ptr %38, align 4, !tbaa !11
  %40 = mul i32 2, %39
  %41 = add i32 %40, 0
  %42 = zext i32 %41 to i64
  %43 = getelementptr inbounds nuw i16, ptr %36, i64 %42
  %44 = load i16, ptr %43, align 2, !tbaa !149
  %45 = zext i16 %44 to i32
  store i32 %45, ptr %10, align 4, !tbaa !12
  store i32 %45, ptr %9, align 4, !tbaa !12
  %46 = load ptr, ptr %3, align 8, !tbaa !15
  %47 = getelementptr inbounds nuw %struct.Emb_Man_t_, ptr %46, i32 0, i32 15
  %48 = load ptr, ptr %47, align 8, !tbaa !86
  %49 = load ptr, ptr %5, align 8, !tbaa !3
  %50 = getelementptr inbounds nuw %struct.Emb_Obj_t_, ptr %49, i32 0, i32 4
  %51 = load i32, ptr %50, align 4, !tbaa !11
  %52 = mul i32 2, %51
  %53 = add i32 %52, 1
  %54 = zext i32 %53 to i64
  %55 = getelementptr inbounds nuw i16, ptr %48, i64 %54
  %56 = load i16, ptr %55, align 2, !tbaa !149
  %57 = zext i16 %56 to i32
  store i32 %57, ptr %12, align 4, !tbaa !12
  store i32 %57, ptr %11, align 4, !tbaa !12
  store i32 0, ptr %8, align 4, !tbaa !12
  br label %58

58:                                               ; preds = %128, %33
  %59 = load i32, ptr %8, align 4, !tbaa !12
  %60 = load ptr, ptr %5, align 8, !tbaa !3
  %61 = getelementptr inbounds nuw %struct.Emb_Obj_t_, ptr %60, i32 0, i32 1
  %62 = load i32, ptr %61, align 4, !tbaa !31
  %63 = icmp slt i32 %59, %62
  br i1 %63, label %64, label %69

64:                                               ; preds = %58
  %65 = load ptr, ptr %5, align 8, !tbaa !3
  %66 = load i32, ptr %8, align 4, !tbaa !12
  %67 = call ptr @Emb_ObjFanout(ptr noundef %65, i32 noundef %66)
  store ptr %67, ptr %6, align 8, !tbaa !3
  %68 = icmp ne ptr %67, null
  br label %69

69:                                               ; preds = %64, %58
  %70 = phi i1 [ false, %58 ], [ %68, %64 ]
  br i1 %70, label %71, label %131

71:                                               ; preds = %69
  %72 = load i32, ptr %9, align 4, !tbaa !12
  %73 = load ptr, ptr %3, align 8, !tbaa !15
  %74 = getelementptr inbounds nuw %struct.Emb_Man_t_, ptr %73, i32 0, i32 15
  %75 = load ptr, ptr %74, align 8, !tbaa !86
  %76 = load ptr, ptr %6, align 8, !tbaa !3
  %77 = getelementptr inbounds nuw %struct.Emb_Obj_t_, ptr %76, i32 0, i32 4
  %78 = load i32, ptr %77, align 4, !tbaa !11
  %79 = mul i32 2, %78
  %80 = add i32 %79, 0
  %81 = zext i32 %80 to i64
  %82 = getelementptr inbounds nuw i16, ptr %75, i64 %81
  %83 = load i16, ptr %82, align 2, !tbaa !149
  %84 = zext i16 %83 to i32
  %85 = call i32 @Abc_MinInt(i32 noundef %72, i32 noundef %84)
  store i32 %85, ptr %9, align 4, !tbaa !12
  %86 = load i32, ptr %10, align 4, !tbaa !12
  %87 = load ptr, ptr %3, align 8, !tbaa !15
  %88 = getelementptr inbounds nuw %struct.Emb_Man_t_, ptr %87, i32 0, i32 15
  %89 = load ptr, ptr %88, align 8, !tbaa !86
  %90 = load ptr, ptr %6, align 8, !tbaa !3
  %91 = getelementptr inbounds nuw %struct.Emb_Obj_t_, ptr %90, i32 0, i32 4
  %92 = load i32, ptr %91, align 4, !tbaa !11
  %93 = mul i32 2, %92
  %94 = add i32 %93, 0
  %95 = zext i32 %94 to i64
  %96 = getelementptr inbounds nuw i16, ptr %89, i64 %95
  %97 = load i16, ptr %96, align 2, !tbaa !149
  %98 = zext i16 %97 to i32
  %99 = call i32 @Abc_MaxInt(i32 noundef %86, i32 noundef %98)
  store i32 %99, ptr %10, align 4, !tbaa !12
  %100 = load i32, ptr %11, align 4, !tbaa !12
  %101 = load ptr, ptr %3, align 8, !tbaa !15
  %102 = getelementptr inbounds nuw %struct.Emb_Man_t_, ptr %101, i32 0, i32 15
  %103 = load ptr, ptr %102, align 8, !tbaa !86
  %104 = load ptr, ptr %6, align 8, !tbaa !3
  %105 = getelementptr inbounds nuw %struct.Emb_Obj_t_, ptr %104, i32 0, i32 4
  %106 = load i32, ptr %105, align 4, !tbaa !11
  %107 = mul i32 2, %106
  %108 = add i32 %107, 1
  %109 = zext i32 %108 to i64
  %110 = getelementptr inbounds nuw i16, ptr %103, i64 %109
  %111 = load i16, ptr %110, align 2, !tbaa !149
  %112 = zext i16 %111 to i32
  %113 = call i32 @Abc_MinInt(i32 noundef %100, i32 noundef %112)
  store i32 %113, ptr %11, align 4, !tbaa !12
  %114 = load i32, ptr %12, align 4, !tbaa !12
  %115 = load ptr, ptr %3, align 8, !tbaa !15
  %116 = getelementptr inbounds nuw %struct.Emb_Man_t_, ptr %115, i32 0, i32 15
  %117 = load ptr, ptr %116, align 8, !tbaa !86
  %118 = load ptr, ptr %6, align 8, !tbaa !3
  %119 = getelementptr inbounds nuw %struct.Emb_Obj_t_, ptr %118, i32 0, i32 4
  %120 = load i32, ptr %119, align 4, !tbaa !11
  %121 = mul i32 2, %120
  %122 = add i32 %121, 1
  %123 = zext i32 %122 to i64
  %124 = getelementptr inbounds nuw i16, ptr %117, i64 %123
  %125 = load i16, ptr %124, align 2, !tbaa !149
  %126 = zext i16 %125 to i32
  %127 = call i32 @Abc_MaxInt(i32 noundef %114, i32 noundef %126)
  store i32 %127, ptr %12, align 4, !tbaa !12
  br label %128

128:                                              ; preds = %71
  %129 = load i32, ptr %8, align 4, !tbaa !12
  %130 = add nsw i32 %129, 1
  store i32 %130, ptr %8, align 4, !tbaa !12
  br label %58, !llvm.loop !152

131:                                              ; preds = %69
  %132 = load i32, ptr %10, align 4, !tbaa !12
  %133 = load i32, ptr %9, align 4, !tbaa !12
  %134 = sub nsw i32 %132, %133
  %135 = load i32, ptr %12, align 4, !tbaa !12
  %136 = load i32, ptr %11, align 4, !tbaa !12
  %137 = sub nsw i32 %135, %136
  %138 = add nsw i32 %134, %137
  %139 = sitofp i32 %138 to double
  %140 = load double, ptr %4, align 8, !tbaa !124
  %141 = fadd double %140, %139
  store double %141, ptr %4, align 8, !tbaa !124
  br label %142

142:                                              ; preds = %131
  %143 = load ptr, ptr %5, align 8, !tbaa !3
  %144 = call i32 @Emb_ObjSize(ptr noundef %143)
  %145 = load i32, ptr %7, align 4, !tbaa !12
  %146 = add nsw i32 %145, %144
  store i32 %146, ptr %7, align 4, !tbaa !12
  br label %20, !llvm.loop !153

147:                                              ; preds = %31
  %148 = load double, ptr %4, align 8, !tbaa !124
  store double %148, ptr %2, align 8
  store i32 1, ptr %13, align 4
  br label %149

149:                                              ; preds = %147, %18
  call void @llvm.lifetime.end.p0(i64 4, ptr %12) #12
  call void @llvm.lifetime.end.p0(i64 4, ptr %11) #12
  call void @llvm.lifetime.end.p0(i64 4, ptr %10) #12
  call void @llvm.lifetime.end.p0(i64 4, ptr %9) #12
  call void @llvm.lifetime.end.p0(i64 4, ptr %8) #12
  call void @llvm.lifetime.end.p0(i64 4, ptr %7) #12
  call void @llvm.lifetime.end.p0(i64 8, ptr %6) #12
  call void @llvm.lifetime.end.p0(i64 8, ptr %5) #12
  call void @llvm.lifetime.end.p0(i64 8, ptr %4) #12
  %150 = load double, ptr %2, align 8
  ret double %150
}