; Function Attrs: nofree norecurse nosync nounwind memory(read, inaccessiblemem: none) uwtable
define double @Emb_ManComputeHPWL(ptr noundef readonly captures(none) %0) local_unnamed_addr #19 {
  %2 = getelementptr inbounds nuw i8, ptr %0, i64 96
  %3 = load ptr, ptr %2, align 8, !tbaa !78
  %4 = icmp eq ptr %3, null
  br i1 %4, label %.critedge, label %.preheader

.preheader:                                       ; preds = %1
  %5 = getelementptr inbounds nuw i8, ptr %0, i64 48
  %6 = load i32, ptr %5, align 8, !tbaa !46
  %7 = icmp sgt i32 %6, 0
  br i1 %7, label %.lr.ph59, label %.critedge

.lr.ph59:                                         ; preds = %.preheader
  %8 = getelementptr i8, ptr %0, i64 40
  %.val = load ptr, ptr %8, align 8, !tbaa !47
  %.not = icmp eq ptr %.val, null
  br i1 %.not, label %.critedge, label %.lr.ph59.split

.lr.ph59.split:                                   ; preds = %.lr.ph59, %.critedge2
  %.04058 = phi i32 [ %55, %.critedge2 ], [ 0, %.lr.ph59 ]
  %.04257 = phi double [ %53, %.critedge2 ], [ 0.000000e+00, %.lr.ph59 ]
  %9 = zext i32 %.04058 to i64
  %10 = getelementptr inbounds nuw i32, ptr %.val, i64 %9
  %11 = getelementptr i8, ptr %10, i64 16
  %12 = load i32, ptr %11, align 4, !tbaa !8
  %13 = shl i32 %12, 1
  %14 = zext i32 %13 to i64
  %15 = getelementptr inbounds nuw i16, ptr %3, i64 %14
  %16 = load i16, ptr %15, align 2, !tbaa !142
  %17 = zext i16 %16 to i32
  %18 = or disjoint i32 %13, 1
  %19 = zext i32 %18 to i64
  %20 = getelementptr inbounds nuw i16, ptr %3, i64 %19
  %21 = load i16, ptr %20, align 2, !tbaa !142
  %22 = zext i16 %21 to i32
  %23 = getelementptr inbounds nuw i8, ptr %10, i64 4
  %24 = load i32, ptr %23, align 4, !tbaa !52
  %25 = icmp sgt i32 %24, 0
  %.val46.pre = load i32, ptr %10, align 4
  br i1 %25, label %.lr.ph, label %.lr.ph59.split..critedge2_crit_edge

.lr.ph59.split..critedge2_crit_edge:              ; preds = %.lr.ph59.split
  %.pre = lshr i32 %.val46.pre, 4
  br label %.critedge2

.lr.ph:                                           ; preds = %.lr.ph59.split
  %26 = getelementptr inbounds nuw i8, ptr %10, i64 20
  %27 = lshr i32 %.val46.pre, 4
  %28 = zext nneg i32 %27 to i64
  %wide.trip.count = zext nneg i32 %24 to i64
  br label %29

29:                                               ; preds = %.lr.ph, %29
  %indvars.iv = phi i64 [ 0, %.lr.ph ], [ %indvars.iv.next, %29 ]
  %.052 = phi i32 [ %22, %.lr.ph ], [ %48, %29 ]
  %.03651 = phi i32 [ %22, %.lr.ph ], [ %47, %29 ]
  %.03750 = phi i32 [ %17, %.lr.ph ], [ %41, %29 ]
  %.03849 = phi i32 [ %17, %.lr.ph ], [ %40, %29 ]
  %30 = add nuw nsw i64 %indvars.iv, %28
  %31 = getelementptr inbounds nuw [0 x i32], ptr %26, i64 0, i64 %30
  %32 = load i32, ptr %31, align 4, !tbaa !9
  %33 = sext i32 %32 to i64
  %gep = getelementptr i32, ptr %11, i64 %33
  %34 = load i32, ptr %gep, align 4, !tbaa !8
  %35 = shl i32 %34, 1
  %36 = zext i32 %35 to i64
  %37 = getelementptr inbounds nuw i16, ptr %3, i64 %36
  %38 = load i16, ptr %37, align 2, !tbaa !142
  %39 = zext i16 %38 to i32
  %40 = tail call noundef i32 @llvm.smin.i32(i32 %.03849, i32 %39)
  %41 = tail call noundef i32 @llvm.smax.i32(i32 %.03750, i32 %39)
  %42 = or disjoint i32 %35, 1
  %43 = zext i32 %42 to i64
  %44 = getelementptr inbounds nuw i16, ptr %3, i64 %43
  %45 = load i16, ptr %44, align 2, !tbaa !142
  %46 = zext i16 %45 to i32
  %47 = tail call noundef i32 @llvm.smin.i32(i32 %.03651, i32 %46)
  %48 = tail call noundef i32 @llvm.smax.i32(i32 %.052, i32 %46)
  %indvars.iv.next = add nuw nsw i64 %indvars.iv, 1
  %exitcond.not = icmp eq i64 %indvars.iv.next, %wide.trip.count
  br i1 %exitcond.not, label %.critedge2, label %29, !llvm.loop !145

.critedge2:                                       ; preds = %29, %.lr.ph59.split..critedge2_crit_edge
  %.pre-phi = phi i32 [ %.pre, %.lr.ph59.split..critedge2_crit_edge ], [ %27, %29 ]
  %.038.lcssa = phi i32 [ %17, %.lr.ph59.split..critedge2_crit_edge ], [ %40, %29 ]
  %.037.lcssa = phi i32 [ %17, %.lr.ph59.split..critedge2_crit_edge ], [ %41, %29 ]
  %.036.lcssa = phi i32 [ %22, %.lr.ph59.split..critedge2_crit_edge ], [ %47, %29 ]
  %.0.lcssa = phi i32 [ %22, %.lr.ph59.split..critedge2_crit_edge ], [ %48, %29 ]
  %49 = add nuw nsw i32 %.038.lcssa, %.036.lcssa
  %50 = sub nsw i32 %.037.lcssa, %49
  %51 = add nsw i32 %50, %.0.lcssa
  %52 = sitofp i32 %51 to double
  %53 = fadd double %.04257, %52
  %narrow.i = add i32 %.04058, 5
  %54 = add i32 %narrow.i, %24
  %55 = add i32 %54, %.pre-phi
  %56 = icmp slt i32 %55, %6
  br i1 %56, label %.lr.ph59.split, label %.critedge, !llvm.loop !146

.critedge:                                        ; preds = %.critedge2, %.lr.ph59, %.preheader, %1
  %.041 = phi double [ 0.000000e+00, %1 ], [ 0.000000e+00, %.preheader ], [ 0.000000e+00, %.lr.ph59 ], [ %53, %.critedge2 ]
  ret double %.041
}